target datalayout = "e-m:e-p270:32:32-p271:32:32-p272:64:64-i64:64-i128:128-f80:128-n8:16:32:64-S128"
target triple = "x86_64-pc-linux-gnu"

%"struct.absl::FailureSignalData" = type { i32, ptr, %struct.sigaction }
%struct.sigaction = type { %union.anon, %struct.__sigset_t, i32, ptr }
%union.anon = type { ptr }
%struct.__sigset_t = type { [16 x i64] }
%"struct.absl::FailureSignalHandlerOptions" = type { i8, i8, i32, i8, ptr }

@_ZN4abslL11fsh_optionsE = internal global %"struct.absl::FailureSignalHandlerOptions" { i8 1, i8 1, i32 3, i8 0, ptr null }, align 8
@.str.8 = private unnamed_addr constant [140 x i8] c"generated/home/dtcxzyw/WorkSpace/Projects/compilers/llvm-opt-benchmark/bench/abseil-cpp/abseil-cpp/absl/debugging/failure_signal_handler.cc\00", align 1
@.str.9 = private unnamed_addr constant [20 x i8] c"Check %s failed: %s\00", align 1
@.str.10 = private unnamed_addr constant [58 x i8] c"sigaction(data->signo, &act, &data->previous_action) == 0\00", align 1
@.str.11 = private unnamed_addr constant [19 x i8] c"sigaction() failed\00", align 1
@_ZZN4abslL24MaybeSetupAlternateStackEvE5kOnce = internal global i8 0, align 1
@_ZGVZN4abslL24MaybeSetupAlternateStackEvE5kOnce = internal global i64 0, align 8

; Function Attrs: mustprogress uwtable
define internal noundef i32 @_ZN4abslL24MaybeSetupAlternateStackEv() #2 personality ptr @__gxx_personality_v0 {
  %1 = alloca ptr, align 8
  %2 = alloca i32, align 4
  %3 = load atomic i8, ptr @_ZGVZN4abslL24MaybeSetupAlternateStackEvE5kOnce acquire, align 8
  %4 = icmp eq i8 %3, 0
  br i1 %4, label %5, label %13, !prof !33

5:                                                ; preds = %0
  %6 = call i32 @__cxa_guard_acquire(ptr @_ZGVZN4abslL24MaybeSetupAlternateStackEvE5kOnce) #8
  %7 = icmp ne i32 %6, 0
  br i1 %7, label %8, label %13

8:                                                ; preds = %5
  %9 = invoke noundef zeroext i1 @_ZN4abslL23SetupAlternateStackOnceEv()
          to label %10 unwind label %14

10:                                               ; preds = %8
  %11 = zext i1 %9 to i8
  store i8 %11, ptr @_ZZN4abslL24MaybeSetupAlternateStackEvE5kOnce, align 1, !tbaa !20
  %12 = call ptr @llvm.invariant.start.p0(i64 1, ptr @_ZZN4abslL24MaybeSetupAlternateStackEvE5kOnce)
  call void @__cxa_guard_release(ptr @_ZGVZN4abslL24MaybeSetupAlternateStackEvE5kOnce) #8
  br label %13

13:                                               ; preds = %10, %5, %0
  ret i32 134217728

14:                                               ; preds = %8
  %15 = landingpad { ptr, i32 }
          cleanup
  %16 = extractvalue { ptr, i32 } %15, 0
  store ptr %16, ptr %1, align 8
  %17 = extractvalue { ptr, i32 } %15, 1
  store i32 %17, ptr %2, align 4
  call void @__cxa_guard_abort(ptr @_ZGVZN4abslL24MaybeSetupAlternateStackEvE5kOnce) #8
  br label %18

18:                                               ; preds = %14
  %19 = load ptr, ptr %1, align 8
  %20 = load i32, ptr %2, align 4
  %21 = insertvalue { ptr, i32 } poison, ptr %19, 0
  %22 = insertvalue { ptr, i32 } %21, i32 %20, 1
  resume { ptr, i32 } %22
}

; Function Attrs: mustprogress uwtable
define internal void @_ZN4abslL24InstallOneFailureHandlerEPNS_17FailureSignalDataEPFviP9siginfo_tPvE(ptr noundef %0, ptr noundef %1) #2 {
  %3 = alloca ptr, align 8
  %4 = alloca ptr, align 8
  %5 = alloca %struct.sigaction, align 8
  %6 = alloca ptr, align 8
  store ptr %0, ptr %3, align 8, !tbaa !8
  store ptr %1, ptr %4, align 8, !tbaa !22
  call void @llvm.lifetime.start.p0(i64 152, ptr %5) #8
  call void @llvm.memset.p0.i64(ptr align 8 %5, i8 0, i64 152, i1 false)
  %7 = getelementptr inbounds nuw %struct.sigaction, ptr %5, i32 0, i32 1
  %8 = call i32 @sigemptyset(ptr noundef %7) #8
  %9 = getelementptr inbounds nuw %struct.sigaction, ptr %5, i32 0, i32 2
  %10 = load i32, ptr %9, align 8, !tbaa !23
  %11 = or i32 %10, 4
  store i32 %11, ptr %9, align 8, !tbaa !23
  %12 = getelementptr inbounds nuw %struct.sigaction, ptr %5, i32 0, i32 2
  %13 = load i32, ptr %12, align 8, !tbaa !23
  %14 = or i32 %13, 1073741824
  store i32 %14, ptr %12, align 8, !tbaa !23
  %15 = load i8, ptr getelementptr inbounds nuw (%"struct.absl::FailureSignalHandlerOptions", ptr @_ZN4abslL11fsh_optionsE, i32 0, i32 1), align 1, !tbaa !24, !range !26, !noundef !27
  %16 = trunc i8 %15 to i1
  br i1 %16, label %17, label %22

17:                                               ; preds = %2
  %18 = call noundef i32 @_ZN4abslL24MaybeSetupAlternateStackEv()
  %19 = getelementptr inbounds nuw %struct.sigaction, ptr %5, i32 0, i32 2
  %20 = load i32, ptr %19, align 8, !tbaa !23
  %21 = or i32 %20, %18
  store i32 %21, ptr %19, align 8, !tbaa !23
  br label %22

22:                                               ; preds = %17, %2
  %23 = load ptr, ptr %4, align 8, !tbaa !22
  %24 = getelementptr inbounds nuw %struct.sigaction, ptr %5, i32 0, i32 0
  store ptr %23, ptr %24, align 8, !tbaa !28
  br label %25

25:                                               ; preds = %22
  %26 = load ptr, ptr %3, align 8, !tbaa !8
  %27 = getelementptr inbounds nuw %"struct.absl::FailureSignalData", ptr %26, i32 0, i32 0
  %28 = load i32, ptr %27, align 8, !tbaa !11
  %29 = load ptr, ptr %3, align 8, !tbaa !8
  %30 = getelementptr inbounds nuw %"struct.absl::FailureSignalData", ptr %29, i32 0, i32 2
  %31 = call i32 @sigaction(i32 noundef %28, ptr noundef %5, ptr noundef %30) #8
  %32 = icmp eq i32 %31, 0
  %33 = xor i1 %32, true
  %34 = zext i1 %33 to i64
  %35 = call i64 @llvm.expect.i64(i64 %34, i64 0)
  %36 = icmp ne i64 %35, 0
  br i1 %36, label %37, label %44

37:                                               ; preds = %25
  br label %38

38:                                               ; preds = %37
  call void @llvm.lifetime.start.p0(i64 8, ptr %6) #8
  store ptr getelementptr (i8, ptr @.str.8, i64 114), ptr %6, align 8, !tbaa !29
  call void (i32, ptr, i32, ptr, ...) @_ZN4absl16raw_log_internal6RawLogENS_11LogSeverityEPKciS3_z(i32 noundef 3, ptr noundef getelementptr (i8, ptr @.str.8, i64 114), i32 noundef 244, ptr noundef @.str.9, ptr noundef @.str.10, ptr noundef @.str.11)
  br label %39

39:                                               ; preds = %38
  unreachable

40:                                               ; No predecessors!
  br label %41

41:                                               ; preds = %40
  call void @llvm.lifetime.end.p0(i64 8, ptr %6) #8
  br label %42

42:                                               ; preds = %41
  br label %43

43:                                               ; preds = %42
  br label %44

44:                                               ; preds = %43, %25
  br label %45

45:                                               ; preds = %44
  br label %46

46:                                               ; preds = %45
  call void @llvm.lifetime.end.p0(i64 152, ptr %5) #8
  ret void
}

; Function Attrs: mustprogress uwtable
define dso_local void @_ZN4absl27InstallFailureSignalHandlerERKNS_27FailureSignalHandlerOptionsE(ptr noundef nonnull align 8 dereferenceable(24) %0) #2 {
  %2 = alloca ptr, align 8
  %3 = alloca ptr, align 8
  %4 = alloca ptr, align 8
  %5 = alloca ptr, align 8
  %6 = alloca ptr, align 8
  store ptr %0, ptr %2, align 8, !tbaa !17
  %7 = load ptr, ptr %2, align 8, !tbaa !17
  call void @llvm.memcpy.p0.p0.i64(ptr align 8 @_ZN4abslL11fsh_optionsE, ptr align 8 %7, i64 24, i1 false), !tbaa.struct !19
  call void @llvm.lifetime.start.p0(i64 8, ptr %3) #8
  store ptr @_ZN4abslL19failure_signal_dataE, ptr %3, align 8, !tbaa !8
  call void @llvm.lifetime.start.p0(i64 8, ptr %4) #8
  store ptr @_ZN4abslL19failure_signal_dataE, ptr %4, align 8, !tbaa !8
  call void @llvm.lifetime.start.p0(i64 8, ptr %5) #8
  store ptr getelementptr inbounds (%"struct.absl::FailureSignalData", ptr @_ZN4abslL19failure_signal_dataE, i64 7), ptr %5, align 8, !tbaa !8
  br label %8

8:                                                ; preds = %16, %1
  %9 = load ptr, ptr %4, align 8, !tbaa !8
  %10 = load ptr, ptr %5, align 8, !tbaa !8
  %11 = icmp ne ptr %9, %10
  br i1 %11, label %13, label %12

12:                                               ; preds = %8
  call void @llvm.lifetime.end.p0(i64 8, ptr %5) #8
  call void @llvm.lifetime.end.p0(i64 8, ptr %4) #8
  call void @llvm.lifetime.end.p0(i64 8, ptr %3) #8
  br label %19

13:                                               ; preds = %8
  call void @llvm.lifetime.start.p0(i64 8, ptr %6) #8
  %14 = load ptr, ptr %4, align 8, !tbaa !8
  store ptr %14, ptr %6, align 8, !tbaa !8
  %15 = load ptr, ptr %6, align 8, !tbaa !8
  call void @_ZN4abslL24InstallOneFailureHandlerEPNS_17FailureSignalDataEPFviP9siginfo_tPvE(ptr noundef %15, ptr noundef @_ZN4abslL24AbslFailureSignalHandlerEiP9siginfo_tPv)
  call void @llvm.lifetime.end.p0(i64 8, ptr %6) #8
  br label %16

16:                                               ; preds = %13
  %17 = load ptr, ptr %4, align 8, !tbaa !8
  %18 = getelementptr inbounds nuw %"struct.absl::FailureSignalData", ptr %17, i32 1
  store ptr %18, ptr %4, align 8, !tbaa !8
  br label %8

19:                                               ; preds = %12
  ret void
}