; Function Attrs: mustprogress uwtable
define dso_local void @_ZN4absl27InstallFailureSignalHandlerERKNS_27FailureSignalHandlerOptionsE(ptr noundef nonnull readonly align 8 captures(none) dereferenceable(24) %0) local_unnamed_addr #2 personality ptr @__gxx_personality_v0 {
  %2 = alloca %struct.sigaction, align 8
  tail call void @llvm.memcpy.p0.p0.i64(ptr noundef nonnull align 8 dereferenceable(24) @_ZN4abslL11fsh_optionsE, ptr noundef nonnull align 8 dereferenceable(24) %0, i64 24, i1 false), !tbaa.struct !14
  %3 = getelementptr inbounds nuw i8, ptr %2, i64 8
  %4 = getelementptr inbounds nuw i8, ptr %2, i64 136
  br label %6

5:                                                ; preds = %_ZN4abslL24InstallOneFailureHandlerEPNS_17FailureSignalDataEPFviP9siginfo_tPvE.exit
  ret void

6:                                                ; preds = %1, %_ZN4abslL24InstallOneFailureHandlerEPNS_17FailureSignalDataEPFviP9siginfo_tPvE.exit
  %.0.idx6 = phi i64 [ 0, %1 ], [ %.0.add, %_ZN4abslL24InstallOneFailureHandlerEPNS_17FailureSignalDataEPFviP9siginfo_tPvE.exit ]
  %.0.ptr = getelementptr inbounds nuw i8, ptr @_ZN4abslL19failure_signal_dataE, i64 %.0.idx6
  call void @llvm.lifetime.start.p0(i64 152, ptr nonnull %2) #15
  call void @llvm.memset.p0.i64(ptr noundef nonnull align 8 dereferenceable(152) %2, i8 0, i64 152, i1 false)
  %7 = call i32 @sigemptyset(ptr noundef nonnull %3) #15
  %8 = load i32, ptr %4, align 8, !tbaa !19
  %9 = or i32 %8, 1073741828
  store i32 %9, ptr %4, align 8, !tbaa !19
  %10 = load i8, ptr getelementptr inbounds nuw (i8, ptr @_ZN4abslL11fsh_optionsE, i64 1), align 1, !tbaa !20, !range !22, !noundef !23
  %11 = trunc nuw i8 %10 to i1
  br i1 %11, label %12, label %24

12:                                               ; preds = %6
  %13 = load atomic i8, ptr @_ZGVZN4abslL24MaybeSetupAlternateStackEvE5kOnce acquire, align 8
  %14 = icmp eq i8 %13, 0
  br i1 %14, label %15, label %_ZN4abslL24MaybeSetupAlternateStackEv.exit.i, !prof !24

15:                                               ; preds = %12
  %16 = call i32 @__cxa_guard_acquire(ptr nonnull @_ZGVZN4abslL24MaybeSetupAlternateStackEvE5kOnce) #15
  %.not.i.i = icmp eq i32 %16, 0
  br i1 %.not.i.i, label %_ZN4abslL24MaybeSetupAlternateStackEv.exit.i, label %17

17:                                               ; preds = %15
  invoke fastcc void @_ZN4abslL23SetupAlternateStackOnceEv()
          to label %18 unwind label %20

18:                                               ; preds = %17
  store i8 1, ptr @_ZZN4abslL24MaybeSetupAlternateStackEvE5kOnce, align 1, !tbaa !15
  %19 = call ptr @llvm.invariant.start.p0(i64 1, ptr nonnull @_ZZN4abslL24MaybeSetupAlternateStackEvE5kOnce)
  call void @__cxa_guard_release(ptr nonnull @_ZGVZN4abslL24MaybeSetupAlternateStackEvE5kOnce) #15
  br label %_ZN4abslL24MaybeSetupAlternateStackEv.exit.i

20:                                               ; preds = %17
  %21 = landingpad { ptr, i32 }
          cleanup
  call void @__cxa_guard_abort(ptr nonnull @_ZGVZN4abslL24MaybeSetupAlternateStackEvE5kOnce) #15
  resume { ptr, i32 } %21

_ZN4abslL24MaybeSetupAlternateStackEv.exit.i:     ; preds = %18, %15, %12
  %22 = load i32, ptr %4, align 8, !tbaa !19
  %23 = or i32 %22, 134217728
  store i32 %23, ptr %4, align 8, !tbaa !19
  br label %24

24:                                               ; preds = %_ZN4abslL24MaybeSetupAlternateStackEv.exit.i, %6
  store ptr @_ZN4abslL24AbslFailureSignalHandlerEiP9siginfo_tPv, ptr %2, align 8, !tbaa !25
  %25 = load i32, ptr %.0.ptr, align 8, !tbaa !4
  %26 = getelementptr inbounds nuw i8, ptr %.0.ptr, i64 16
  %27 = call i32 @sigaction(i32 noundef %25, ptr noundef nonnull %2, ptr noundef nonnull %26) #15
  %.not.i = icmp eq i32 %27, 0
  br i1 %.not.i, label %_ZN4abslL24InstallOneFailureHandlerEPNS_17FailureSignalDataEPFviP9siginfo_tPvE.exit, label %28, !prof !26

28:                                               ; preds = %24
  call void (i32, ptr, i32, ptr, ...) @_ZN4absl16raw_log_internal6RawLogENS_11LogSeverityEPKciS3_z(i32 noundef 3, ptr noundef nonnull getelementptr inbounds nuw (i8, ptr @.str.8, i64 114), i32 noundef 244, ptr noundef nonnull @.str.9, ptr noundef nonnull @.str.10, ptr noundef nonnull @.str.11)
  unreachable

_ZN4abslL24InstallOneFailureHandlerEPNS_17FailureSignalDataEPFviP9siginfo_tPvE.exit: ; preds = %24
  call void @llvm.lifetime.end.p0(i64 152, ptr nonnull %2) #15
  %.0.add = add nuw nsw i64 %.0.idx6, 168
  %.not = icmp eq i64 %.0.add, 1176
  br i1 %.not, label %5, label %6
}